; Function Attrs: noinline nounwind uwtable
define internal fastcc range(i32 -26, 4) i32 @CopyUncompressedBlockToOutput(ptr noundef captures(none) %0, ptr noundef %1, ptr noundef %2, ptr noundef captures(none) %3) unnamed_addr #10 {
  %5 = tail call fastcc i32 @BrotliEnsureRingBuffer(ptr noundef %3)
  %.not = icmp eq i32 %5, 0
  br i1 %.not, label %.thread50, label %.preheader

.preheader:                                       ; preds = %4
  %6 = getelementptr inbounds nuw i8, ptr %3, i64 756
  %7 = getelementptr inbounds nuw i8, ptr %3, i64 8
  %8 = getelementptr inbounds nuw i8, ptr %3, i64 40
  %9 = getelementptr inbounds nuw i8, ptr %3, i64 24
  %10 = getelementptr inbounds nuw i8, ptr %3, i64 16
  %11 = getelementptr inbounds nuw i8, ptr %3, i64 132
  %12 = getelementptr inbounds nuw i8, ptr %3, i64 88
  %13 = getelementptr inbounds nuw i8, ptr %3, i64 100
  %14 = getelementptr inbounds nuw i8, ptr %3, i64 136
  %15 = getelementptr inbounds nuw i8, ptr %3, i64 772
  %16 = getelementptr inbounds nuw i8, ptr %3, i64 92
  %17 = getelementptr inbounds nuw i8, ptr %3, i64 96
  %.pre = load i32, ptr %6, align 4, !tbaa !132
  br label %.outer

.outer:                                           ; preds = %82, %.preheader
  %.ph = phi i32 [ 0, %82 ], [ %.pre, %.preheader ]
  br label %18

18:                                               ; preds = %.outer, %18
  switch i32 %.ph, label %18 [
    i32 0, label %BrotliGetRemainingBytes.exit
    i32 1, label %.loopexit
  ]

BrotliGetRemainingBytes.exit:                     ; preds = %18
  %19 = load ptr, ptr %8, align 8, !tbaa !41
  %20 = load ptr, ptr %9, align 8, !tbaa !40
  %21 = ptrtoint ptr %19 to i64
  %22 = ptrtoint ptr %20 to i64
  %23 = sub i64 %21, %22
  %24 = icmp ugt i64 %23, 1073741824
  %.pre69 = load i64, ptr %10, align 8, !tbaa !46
  %25 = lshr i64 %.pre69, 3
  %26 = add nuw nsw i64 %25, %23
  %27 = trunc i64 %26 to i32
  %.0.i = select i1 %24, i32 1073741824, i32 %27
  %28 = load i32, ptr %11, align 4, !tbaa !54
  %spec.select = tail call i32 @llvm.smin.i32(i32 %28, i32 %.0.i)
  %29 = load i32, ptr %12, align 8, !tbaa !105
  %30 = add nsw i32 %29, %spec.select
  %31 = load i32, ptr %13, align 4, !tbaa !103
  %32 = icmp sgt i32 %30, %31
  %33 = sub nsw i32 %31, %29
  %.139 = select i1 %32, i32 %33, i32 %spec.select
  %34 = load ptr, ptr %14, align 8, !tbaa !43
  %35 = sext i32 %29 to i64
  %36 = getelementptr inbounds i8, ptr %34, i64 %35
  %37 = sext i32 %.139 to i64
  %38 = icmp ugt i64 %.pre69, 7
  %39 = icmp ne i32 %.139, 0
  %40 = select i1 %38, i1 %39, i1 false
  br i1 %40, label %.lr.ph.preheader, label %._crit_edge

.lr.ph.preheader:                                 ; preds = %BrotliGetRemainingBytes.exit
  %.pre70 = load i64, ptr %7, align 8, !tbaa !47
  br label %.lr.ph

.lr.ph:                                           ; preds = %.lr.ph.preheader, %.lr.ph
  %41 = phi i64 [ %46, %.lr.ph ], [ %.pre70, %.lr.ph.preheader ]
  %.0.i4759 = phi i64 [ %48, %.lr.ph ], [ %37, %.lr.ph.preheader ]
  %.013.i58 = phi ptr [ %47, %.lr.ph ], [ %36, %.lr.ph.preheader ]
  %42 = trunc i64 %41 to i8
  store i8 %42, ptr %.013.i58, align 1, !tbaa !44
  %43 = load i64, ptr %10, align 8, !tbaa !46
  %44 = add i64 %43, -8
  store i64 %44, ptr %10, align 8, !tbaa !46
  %45 = load i64, ptr %7, align 8, !tbaa !47
  %46 = lshr i64 %45, 8
  store i64 %46, ptr %7, align 8, !tbaa !47
  %47 = getelementptr inbounds nuw i8, ptr %.013.i58, i64 1
  %48 = add i64 %.0.i4759, -1
  %49 = icmp ugt i64 %44, 7
  %50 = icmp ne i64 %48, 0
  %51 = select i1 %49, i1 %50, i1 false
  br i1 %51, label %.lr.ph, label %._crit_edge, !llvm.loop !133

._crit_edge:                                      ; preds = %.lr.ph, %BrotliGetRemainingBytes.exit
  %.013.i.lcssa = phi ptr [ %36, %BrotliGetRemainingBytes.exit ], [ %47, %.lr.ph ]
  %.0.i47.lcssa = phi i64 [ %37, %BrotliGetRemainingBytes.exit ], [ %48, %.lr.ph ]
  %.lcssa55 = phi i64 [ %.pre69, %BrotliGetRemainingBytes.exit ], [ %44, %.lr.ph ]
  %.lcssa = phi i1 [ %39, %BrotliGetRemainingBytes.exit ], [ %50, %.lr.ph ]
  %52 = icmp ult i64 %.lcssa55, 64
  br i1 %52, label %53, label %BrotliBitReaderNormalize.exit.i

53:                                               ; preds = %._crit_edge
  %notmask.i.i = shl nsw i64 -1, %.lcssa55
  %54 = xor i64 %notmask.i.i, -1
  %55 = load i64, ptr %7, align 8, !tbaa !47
  %56 = and i64 %55, %54
  store i64 %56, ptr %7, align 8, !tbaa !47
  br label %BrotliBitReaderNormalize.exit.i

BrotliBitReaderNormalize.exit.i:                  ; preds = %53, %._crit_edge
  br i1 %.lcssa, label %57, label %BrotliCopyBytes.exit

57:                                               ; preds = %BrotliBitReaderNormalize.exit.i
  %58 = load ptr, ptr %9, align 8, !tbaa !40
  tail call void @llvm.memcpy.p0.p0.i64(ptr align 1 %.013.i.lcssa, ptr align 1 %58, i64 %.0.i47.lcssa, i1 false)
  %59 = load ptr, ptr %9, align 8, !tbaa !40
  %60 = getelementptr inbounds nuw i8, ptr %59, i64 %.0.i47.lcssa
  store ptr %60, ptr %9, align 8, !tbaa !40
  br label %BrotliCopyBytes.exit

BrotliCopyBytes.exit:                             ; preds = %BrotliBitReaderNormalize.exit.i, %57
  %61 = load i32, ptr %12, align 8, !tbaa !105
  %62 = add nsw i32 %61, %.139
  store i32 %62, ptr %12, align 8, !tbaa !105
  %63 = load i32, ptr %11, align 4, !tbaa !54
  %64 = sub nsw i32 %63, %.139
  store i32 %64, ptr %11, align 4, !tbaa !54
  %65 = load i32, ptr %15, align 4
  %66 = lshr i32 %65, 6
  %67 = and i32 %66, 63
  %68 = shl nuw i32 1, %67
  %69 = icmp slt i32 %62, %68
  br i1 %69, label %70, label %.thread

.thread:                                          ; preds = %BrotliCopyBytes.exit
  store i32 1, ptr %6, align 4, !tbaa !132
  br label %.loopexit

70:                                               ; preds = %BrotliCopyBytes.exit
  %71 = icmp eq i32 %63, %.139
  %. = select i1 %71, i32 1, i32 2
  br label %.thread50

.loopexit:                                        ; preds = %18, %.thread
  %72 = tail call fastcc i32 @WriteRingBuffer(ptr noundef nonnull %3, ptr noundef %0, ptr noundef %1, ptr noundef %2, i32 noundef 0)
  %.not44 = icmp eq i32 %72, 1
  br i1 %.not44, label %73, label %.thread50

73:                                               ; preds = %.loopexit
  %74 = load i32, ptr %13, align 4, !tbaa !103
  %75 = load i32, ptr %15, align 4
  %76 = lshr i32 %75, 6
  %77 = and i32 %76, 63
  %78 = shl nuw i32 1, %77
  %79 = icmp eq i32 %74, %78
  br i1 %79, label %80, label %82

80:                                               ; preds = %73
  %81 = load i32, ptr %16, align 4, !tbaa !49
  store i32 %81, ptr %17, align 8, !tbaa !104
  br label %82

82:                                               ; preds = %73, %80
  store i32 0, ptr %6, align 4, !tbaa !132
  br label %.outer

.thread50:                                        ; preds = %.loopexit, %70, %4
  %.0 = phi i32 [ %., %70 ], [ -26, %4 ], [ %72, %.loopexit ]
  ret i32 %.0
}